target datalayout = "e-m:e-p270:32:32-p271:32:32-p272:64:64-i64:64-i128:128-f80:128-n8:16:32:64-S128"
target triple = "x86_64-pc-linux-gnu"

%class.PcDescCache = type { [4 x ptr] }
%class.PcDesc = type { i32, i32, i32, i32 }
%class.nmethod = type <{ %class.CodeBlob.base, [2 x i8], i64, i64, ptr, %union.anon, ptr, ptr, ptr, ptr, ptr, ptr, ptr, i16, i16, i32, i32, i32, i32, i32, i32, i32, i16, i16, i16, i16, i16, i16, i32, i32, i32, i32, i32, i8, i8, i8, i8, i8, i8, [2 x i8] }>
%class.CodeBlob.base = type <{ ptr, ptr, ptr, i32, i32, i32, i32, i32, i32, i16, i16, i8, i8 }>
%union.anon = type { ptr }
%class.CodeBlob = type <{ ptr, ptr, ptr, i32, i32, i32, i32, i32, i32, i16, i16, i8, i8, [2 x i8] }>
%class.PcDescContainer = type { %class.PcDescCache }

@g_assert_poison = external global ptr, align 8
@.str.6 = private unnamed_addr constant [35 x i8] c"src/hotspot/share/code/nmethod.cpp\00", align 1
@.str.8 = private unnamed_addr constant [32 x i8] c"guarantee(pd != nullptr) failed\00", align 1
@.str.9 = private unnamed_addr constant [22 x i8] c"scope must be present\00", align 1

; Function Attrs: mustprogress nounwind uwtable
define linkonce_odr hidden noundef i32 @_ZNK6PcDesc9pc_offsetEv(ptr noundef nonnull align 4 dereferenceable(16) %0) #1 comdat align 2 {
  %2 = alloca ptr, align 8
  store ptr %0, ptr %2, align 8
  %3 = load ptr, ptr %2, align 8
  %4 = getelementptr inbounds %class.PcDesc, ptr %3, i32 0, i32 0
  %5 = load i32, ptr %4, align 4
  ret i32 %5
}

; Function Attrs: mustprogress nounwind uwtable
define linkonce_odr hidden noundef ptr @_ZN11PcDescCache12last_pc_descEv(ptr noundef nonnull align 8 dereferenceable(32) %0) #1 comdat align 2 {
  %2 = alloca ptr, align 8
  store ptr %0, ptr %2, align 8
  %3 = load ptr, ptr %2, align 8
  %4 = getelementptr inbounds %class.PcDescCache, ptr %3, i32 0, i32 0
  %5 = getelementptr inbounds [4 x ptr], ptr %4, i64 0, i64 0
  %6 = load volatile ptr, ptr %5, align 8
  ret ptr %6
}

; Function Attrs: mustprogress nounwind uwtable
define linkonce_odr hidden noundef ptr @_ZNK8CodeBlob12header_beginEv(ptr noundef nonnull align 8 dereferenceable(54) %0) #1 comdat align 2 {
  %2 = alloca ptr, align 8
  store ptr %0, ptr %2, align 8
  %3 = load ptr, ptr %2, align 8
  ret ptr %3
}

; Function Attrs: mustprogress nounwind uwtable
define linkonce_odr hidden noundef ptr @_ZN15PcDescContainer12find_pc_descEPhbS0_P6PcDescS2_(ptr noundef nonnull align 8 dereferenceable(32) %0, ptr noundef %1, i1 noundef zeroext %2, ptr noundef %3, ptr noundef %4, ptr noundef %5) #1 comdat align 2 {
  %7 = alloca ptr, align 8
  %8 = alloca ptr, align 8
  %9 = alloca ptr, align 8
  %10 = alloca i8, align 1
  %11 = alloca ptr, align 8
  %12 = alloca ptr, align 8
  %13 = alloca ptr, align 8
  %14 = alloca ptr, align 8
  store ptr %0, ptr %8, align 8
  store ptr %1, ptr %9, align 8
  %15 = zext i1 %2 to i8
  store i8 %15, ptr %10, align 1
  store ptr %3, ptr %11, align 8
  store ptr %4, ptr %12, align 8
  store ptr %5, ptr %13, align 8
  %16 = load ptr, ptr %8, align 8
  %17 = getelementptr inbounds %class.PcDescContainer, ptr %16, i32 0, i32 0
  %18 = call noundef ptr @_ZN11PcDescCache12last_pc_descEv(ptr noundef nonnull align 8 dereferenceable(32) %17)
  store ptr %18, ptr %14, align 8
  %19 = load ptr, ptr %14, align 8
  %20 = call noundef i32 @_ZNK6PcDesc9pc_offsetEv(ptr noundef nonnull align 4 dereferenceable(16) %19)
  %21 = sext i32 %20 to i64
  %22 = load ptr, ptr %9, align 8
  %23 = load ptr, ptr %11, align 8
  %24 = ptrtoint ptr %22 to i64
  %25 = ptrtoint ptr %23 to i64
  %26 = sub i64 %24, %25
  %27 = icmp eq i64 %21, %26
  br i1 %27, label %28, label %30

28:                                               ; preds = %6
  %29 = load ptr, ptr %14, align 8
  store ptr %29, ptr %7, align 8
  br label %38

30:                                               ; preds = %6
  %31 = load ptr, ptr %9, align 8
  %32 = load i8, ptr %10, align 1
  %33 = trunc i8 %32 to i1
  %34 = load ptr, ptr %11, align 8
  %35 = load ptr, ptr %12, align 8
  %36 = load ptr, ptr %13, align 8
  %37 = call noundef ptr @_ZN15PcDescContainer21find_pc_desc_internalEPhbS0_P6PcDescS2_(ptr noundef nonnull align 8 dereferenceable(32) %16, ptr noundef %31, i1 noundef zeroext %33, ptr noundef %34, ptr noundef %35, ptr noundef %36)
  store ptr %37, ptr %7, align 8
  br label %38

38:                                               ; preds = %30, %28
  %39 = load ptr, ptr %7, align 8
  ret ptr %39
}

; Function Attrs: mustprogress nounwind uwtable
define linkonce_odr hidden noundef ptr @_ZNK7nmethod14scopes_pcs_endEv(ptr noundef nonnull align 8 dereferenceable(214) %0) #1 comdat align 2 {
  %2 = alloca ptr, align 8
  store ptr %0, ptr %2, align 8
  %3 = load ptr, ptr %2, align 8
  %4 = getelementptr inbounds %class.nmethod, ptr %3, i32 0, i32 6
  %5 = load ptr, ptr %4, align 8
  %6 = getelementptr inbounds %class.nmethod, ptr %3, i32 0, i32 29
  %7 = load i32, ptr %6, align 8
  %8 = sext i32 %7 to i64
  %9 = getelementptr inbounds i8, ptr %5, i64 %8
  ret ptr %9
}

; Function Attrs: mustprogress nounwind uwtable
define linkonce_odr hidden noundef ptr @_ZNK7nmethod16scopes_pcs_beginEv(ptr noundef nonnull align 8 dereferenceable(214) %0) #1 comdat align 2 {
  %2 = alloca ptr, align 8
  store ptr %0, ptr %2, align 8
  %3 = load ptr, ptr %2, align 8
  %4 = getelementptr inbounds %class.nmethod, ptr %3, i32 0, i32 6
  %5 = load ptr, ptr %4, align 8
  %6 = getelementptr inbounds %class.nmethod, ptr %3, i32 0, i32 28
  %7 = load i32, ptr %6, align 4
  %8 = sext i32 %7 to i64
  %9 = getelementptr inbounds i8, ptr %5, i64 %8
  ret ptr %9
}

; Function Attrs: mustprogress nounwind uwtable
define linkonce_odr hidden noundef ptr @_ZNK8CodeBlob10code_beginEv(ptr noundef nonnull align 8 dereferenceable(54) %0) #1 comdat align 2 {
  %2 = alloca ptr, align 8
  store ptr %0, ptr %2, align 8
  %3 = load ptr, ptr %2, align 8
  %4 = call noundef ptr @_ZNK8CodeBlob12header_beginEv(ptr noundef nonnull align 8 dereferenceable(54) %3)
  %5 = getelementptr inbounds %class.CodeBlob, ptr %3, i32 0, i32 6
  %6 = load i32, ptr %5, align 4
  %7 = sext i32 %6 to i64
  %8 = getelementptr inbounds i8, ptr %4, i64 %7
  ret ptr %8
}

; Function Attrs: mustprogress nounwind uwtable
define linkonce_odr hidden noundef ptr @_ZN7nmethod12find_pc_descEPhb(ptr noundef nonnull align 8 dereferenceable(214) %0, ptr noundef %1, i1 noundef zeroext %2) #1 comdat align 2 {
  %4 = alloca ptr, align 8
  %5 = alloca ptr, align 8
  %6 = alloca ptr, align 8
  %7 = alloca i8, align 1
  store ptr %0, ptr %5, align 8
  store ptr %1, ptr %6, align 8
  %8 = zext i1 %2 to i8
  store i8 %8, ptr %7, align 1
  %9 = load ptr, ptr %5, align 8
  %10 = getelementptr inbounds %class.nmethod, ptr %9, i32 0, i32 7
  %11 = load ptr, ptr %10, align 8
  %12 = icmp eq ptr %11, null
  br i1 %12, label %13, label %14

13:                                               ; preds = %3
  store ptr null, ptr %4, align 8
  br label %24

14:                                               ; preds = %3
  %15 = getelementptr inbounds %class.nmethod, ptr %9, i32 0, i32 7
  %16 = load ptr, ptr %15, align 8
  %17 = load ptr, ptr %6, align 8
  %18 = load i8, ptr %7, align 1
  %19 = trunc i8 %18 to i1
  %20 = call noundef ptr @_ZNK8CodeBlob10code_beginEv(ptr noundef nonnull align 8 dereferenceable(54) %9)
  %21 = call noundef ptr @_ZNK7nmethod16scopes_pcs_beginEv(ptr noundef nonnull align 8 dereferenceable(214) %9)
  %22 = call noundef ptr @_ZNK7nmethod14scopes_pcs_endEv(ptr noundef nonnull align 8 dereferenceable(214) %9)
  %23 = call noundef ptr @_ZN15PcDescContainer12find_pc_descEPhbS0_P6PcDescS2_(ptr noundef nonnull align 8 dereferenceable(32) %16, ptr noundef %17, i1 noundef zeroext %19, ptr noundef %20, ptr noundef %21, ptr noundef %22)
  store ptr %23, ptr %4, align 8
  br label %24

24:                                               ; preds = %14, %13
  %25 = load ptr, ptr %4, align 8
  ret ptr %25
}

; Function Attrs: mustprogress nounwind uwtable
define linkonce_odr hidden noundef ptr @_ZN11ResourceObjnwEm(i64 noundef %0) #1 comdat align 2 {
  %2 = alloca i64, align 8
  store i64 %0, ptr %2, align 8
  %3 = load i64, ptr %2, align 8
  %4 = call noundef ptr @_Z23resource_allocate_bytesmN17AllocFailStrategy13AllocFailEnumE(i64 noundef %3, i32 noundef 0)
  ret ptr %4
}

; Function Attrs: mustprogress nounwind uwtable
define linkonce_odr hidden noundef ptr @_ZN7nmethod12pc_desc_nearEPh(ptr noundef nonnull align 8 dereferenceable(214) %0, ptr noundef %1) #1 comdat align 2 {
  %3 = alloca ptr, align 8
  %4 = alloca ptr, align 8
  store ptr %0, ptr %3, align 8
  store ptr %1, ptr %4, align 8
  %5 = load ptr, ptr %3, align 8
  %6 = load ptr, ptr %4, align 8
  %7 = call noundef ptr @_ZN7nmethod12find_pc_descEPhb(ptr noundef nonnull align 8 dereferenceable(214) %5, ptr noundef %6, i1 noundef zeroext true)
  ret ptr %7
}

; Function Attrs: mustprogress nounwind uwtable
define hidden noundef ptr @_ZN7nmethod15scope_desc_nearEPh(ptr noundef nonnull align 8 dereferenceable(214) %0, ptr noundef %1) #1 align 2 {
  %3 = alloca ptr, align 8
  %4 = alloca ptr, align 8
  %5 = alloca ptr, align 8
  store ptr %0, ptr %3, align 8
  store ptr %1, ptr %4, align 8
  %6 = load ptr, ptr %3, align 8
  %7 = load ptr, ptr %4, align 8
  %8 = call noundef ptr @_ZN7nmethod12pc_desc_nearEPh(ptr noundef nonnull align 8 dereferenceable(214) %6, ptr noundef %7)
  store ptr %8, ptr %5, align 8
  br label %9

9:                                                ; preds = %2
  %10 = load ptr, ptr %5, align 8
  %11 = icmp ne ptr %10, null
  br i1 %11, label %14, label %12

12:                                               ; preds = %9
  %13 = load ptr, ptr @g_assert_poison, align 8
  store i8 88, ptr %13, align 1
  call void (ptr, i32, ptr, ptr, ...) @_Z15report_vm_errorPKciS0_S0_z(ptr noundef @.str.6, i32 noundef 668, ptr noundef @.str.8, ptr noundef @.str.9) #11
  unreachable

14:                                               ; preds = %9
  br label %15

15:                                               ; preds = %14
  %16 = call noundef ptr @_ZN11ResourceObjnwEm(i64 noundef 56)
  %17 = load ptr, ptr %5, align 8
  call void @_ZN9ScopeDescC1EPK7nmethodP6PcDescb(ptr noundef nonnull align 8 dereferenceable(56) %16, ptr noundef %6, ptr noundef %17, i1 noundef zeroext false)
  ret ptr %16
}