; Function Attrs: mustprogress nounwind uwtable
define hidden noundef ptr @_ZN7nmethod15scope_desc_nearEPh(ptr noundef nonnull align 8 dereferenceable(214) %0, ptr noundef %1) local_unnamed_addr #0 align 2 {
  %3 = getelementptr inbounds i8, ptr %0, i64 96
  %4 = load ptr, ptr %3, align 8
  %5 = icmp eq ptr %4, null
  br i1 %5, label %_ZN7nmethod12pc_desc_nearEPh.exit.thread, label %6

6:                                                ; preds = %2
  %7 = getelementptr inbounds i8, ptr %0, i64 36
  %8 = load i32, ptr %7, align 4
  %9 = sext i32 %8 to i64
  %10 = getelementptr inbounds i8, ptr %0, i64 %9
  %11 = getelementptr inbounds i8, ptr %0, i64 88
  %12 = load ptr, ptr %11, align 8
  %13 = getelementptr inbounds i8, ptr %0, i64 188
  %14 = load i32, ptr %13, align 4
  %15 = getelementptr inbounds i8, ptr %0, i64 192
  %16 = load i32, ptr %15, align 8
  %17 = load volatile ptr, ptr %4, align 8
  %18 = load i32, ptr %17, align 4
  %19 = sext i32 %18 to i64
  %20 = ptrtoint ptr %1 to i64
  %21 = ptrtoint ptr %10 to i64
  %22 = sub i64 %20, %21
  %23 = icmp eq i64 %22, %19
  br i1 %23, label %_ZN7nmethod12pc_desc_nearEPh.exit.thread6, label %_ZN7nmethod12pc_desc_nearEPh.exit

_ZN7nmethod12pc_desc_nearEPh.exit:                ; preds = %6
  %24 = sext i32 %16 to i64
  %25 = getelementptr inbounds i8, ptr %12, i64 %24
  %26 = sext i32 %14 to i64
  %27 = getelementptr inbounds i8, ptr %12, i64 %26
  %28 = tail call noundef ptr @_ZN15PcDescContainer21find_pc_desc_internalEPhbS0_P6PcDescS2_(ptr noundef nonnull align 8 dereferenceable(32) %4, ptr noundef %1, i1 noundef zeroext true, ptr noundef nonnull %10, ptr noundef %27, ptr noundef %25)
  %.not = icmp eq ptr %28, null
  br i1 %.not, label %_ZN7nmethod12pc_desc_nearEPh.exit.thread, label %_ZN7nmethod12pc_desc_nearEPh.exit.thread6

_ZN7nmethod12pc_desc_nearEPh.exit.thread:         ; preds = %2, %_ZN7nmethod12pc_desc_nearEPh.exit
  %29 = load ptr, ptr @g_assert_poison, align 8
  store i8 88, ptr %29, align 1
  tail call void (ptr, i32, ptr, ptr, ...) @_Z15report_vm_errorPKciS0_S0_z(ptr noundef nonnull @.str.6, i32 noundef 668, ptr noundef nonnull @.str.8, ptr noundef nonnull @.str.9) #24
  unreachable

_ZN7nmethod12pc_desc_nearEPh.exit.thread6:        ; preds = %6, %_ZN7nmethod12pc_desc_nearEPh.exit
  %.0.i.i9 = phi ptr [ %28, %_ZN7nmethod12pc_desc_nearEPh.exit ], [ %17, %6 ]
  %30 = tail call noundef ptr @_Z23resource_allocate_bytesmN17AllocFailStrategy13AllocFailEnumE(i64 noundef 56, i32 noundef 0) #23
  tail call void @_ZN9ScopeDescC1EPK7nmethodP6PcDescb(ptr noundef nonnull align 8 dereferenceable(56) %30, ptr noundef nonnull %0, ptr noundef nonnull %.0.i.i9, i1 noundef zeroext false) #23
  ret ptr %30
}